; Function Attrs: mustprogress nounwind uwtable
define hidden void @_ZN14JfrArtifactSet14register_klassEPK5Klass(ptr nocapture noundef nonnull readonly align 8 dereferenceable(41) %0, ptr noundef %1) local_unnamed_addr #0 align 2 {
  %3 = getelementptr inbounds i8, ptr %0, i64 8
  %4 = load ptr, ptr %3, align 8
  %5 = load i32, ptr %4, align 8
  %6 = getelementptr inbounds i8, ptr %4, i64 4
  %7 = load i32, ptr %6, align 4
  %8 = icmp eq i32 %5, %7
  br i1 %8, label %9, label %_ZN26GrowableArrayWithAllocatorIPK5Klass13GrowableArrayIS2_EE6appendERKS2_.exit

9:                                                ; preds = %2
  %10 = add nsw i32 %5, 1
  %11 = icmp sgt i32 %5, -1
  %12 = xor i32 %5, -2147483648
  %13 = and i32 %12, %10
  %14 = icmp eq i32 %13, 0
  %15 = and i1 %11, %14
  %16 = tail call range(i32 0, 33) i32 @llvm.ctlz.i32(i32 %10, i1 true)
  %17 = sub nuw nsw i32 32, %16
  %18 = shl nuw i32 1, %17
  %.0.i.i.i.i = select i1 %15, i32 %10, i32 %18
  tail call void @_ZN26GrowableArrayWithAllocatorIPK5Klass13GrowableArrayIS2_EE9expand_toEi(ptr noundef nonnull align 8 dereferenceable(16) %4, i32 noundef %.0.i.i.i.i)
  %.pre.i = load i32, ptr %4, align 8
  br label %_ZN26GrowableArrayWithAllocatorIPK5Klass13GrowableArrayIS2_EE6appendERKS2_.exit

_ZN26GrowableArrayWithAllocatorIPK5Klass13GrowableArrayIS2_EE6appendERKS2_.exit: ; preds = %2, %9
  %19 = phi i32 [ %.pre.i, %9 ], [ %5, %2 ]
  %20 = add nsw i32 %19, 1
  store i32 %20, ptr %4, align 8
  %21 = getelementptr inbounds i8, ptr %4, i64 8
  %22 = load ptr, ptr %21, align 8
  %23 = sext i32 %19 to i64
  %24 = getelementptr inbounds ptr, ptr %22, i64 %23
  store ptr %1, ptr %24, align 8
  ret void
}